; Function Attrs: mustprogress nounwind uwtable
define hidden noundef zeroext i1 @_ZNK6Method16is_overridden_inEP5Klass(ptr noundef nonnull readonly align 8 dereferenceable(88) %0, ptr noundef %1) local_unnamed_addr #0 align 2 {
  %3 = getelementptr inbounds i8, ptr %1, i64 164
  %4 = load i32, ptr %3, align 4
  %5 = and i32 %4, 512
  %.not = icmp eq i32 %5, 0
  br i1 %.not, label %6, label %40

6:                                                ; preds = %2
  %7 = getelementptr inbounds i8, ptr %0, i64 8
  %8 = load ptr, ptr %7, align 8
  %9 = getelementptr inbounds i8, ptr %8, i64 8
  %10 = load ptr, ptr %9, align 8
  %11 = getelementptr inbounds i8, ptr %10, i64 24
  %12 = load ptr, ptr %11, align 8
  %13 = getelementptr inbounds i8, ptr %12, i64 164
  %14 = load i32, ptr %13, align 4
  %15 = and i32 %14, 512
  %.not7 = icmp eq i32 %15, 0
  br i1 %.not7, label %33, label %16

16:                                               ; preds = %6
  %17 = getelementptr inbounds i8, ptr %8, i64 36
  %18 = load i16, ptr %17, align 4
  %19 = getelementptr inbounds i8, ptr %10, i64 72
  %20 = zext i16 %18 to i64
  %21 = getelementptr inbounds i64, ptr %19, i64 %20
  %22 = load ptr, ptr %21, align 8
  %23 = getelementptr inbounds i8, ptr %8, i64 38
  %24 = load i16, ptr %23, align 2
  %25 = zext i16 %24 to i64
  %26 = getelementptr inbounds i64, ptr %19, i64 %25
  %27 = load ptr, ptr %26, align 8
  %28 = load ptr, ptr %1, align 8
  %29 = getelementptr inbounds i8, ptr %28, i64 192
  %30 = load ptr, ptr %29, align 8
  %31 = tail call noundef ptr %30(ptr noundef nonnull align 8 dereferenceable(196) %1, ptr noundef %22, ptr noundef %27, i32 noundef 0, i32 noundef 0) #23
  %32 = icmp ne ptr %31, null
  br label %40

33:                                               ; preds = %6
  %34 = getelementptr inbounds i8, ptr %0, i64 44
  %35 = load i32, ptr %34, align 4
  %36 = icmp sgt i32 %35, -1
  br i1 %36, label %37, label %40

37:                                               ; preds = %33
  %38 = tail call noundef ptr @_ZN5Klass16method_at_vtableEi(ptr noundef nonnull align 8 dereferenceable(196) %1, i32 noundef %35) #23
  %39 = icmp ne ptr %38, %0
  br label %40

40:                                               ; preds = %33, %16, %2, %37
  %.0 = phi i1 [ %39, %37 ], [ false, %2 ], [ %32, %16 ], [ false, %33 ]
  ret i1 %.0
}